target datalayout = "e-m:e-p270:32:32-p271:32:32-p272:64:64-i64:64-i128:128-f80:128-n8:16:32:64-S128"
target triple = "x86_64-pc-linux-gnu"

%struct._object = type { %union.anon, ptr }
%union.anon = type { i64 }
%struct.anon = type { i32, i32 }
%struct.Py_buffer = type { ptr, ptr, i64, i64, i32, i32, ptr, ptr, ptr, ptr, ptr }
%struct.UnpicklerObject = type { %struct._object, ptr, ptr, i64, i64, ptr, ptr, %struct.Py_buffer, ptr, ptr, i64, i64, i64, ptr, ptr, ptr, ptr, ptr, ptr, ptr, ptr, i64, i64, i32, i32 }
%struct.UnpicklerMemoProxyObject = type { %struct._object, ptr }

; Function Attrs: alwaysinline nounwind uwtable
define internal i32 @_Py_IsImmortal(ptr noundef %0) #4 {
  %2 = alloca ptr, align 8
  store ptr %0, ptr %2, align 8, !tbaa !3
  %3 = load ptr, ptr %2, align 8, !tbaa !3
  %4 = getelementptr inbounds nuw %struct._object, ptr %3, i32 0, i32 0
  %5 = getelementptr inbounds nuw %struct.anon, ptr %4, i32 0, i32 0
  %6 = load i32, ptr %5, align 8, !tbaa !63
  %7 = icmp slt i32 %6, 0
  %8 = zext i1 %7 to i32
  ret i32 %8
}

; Function Attrs: alwaysinline nounwind uwtable
define internal void @Py_DECREF(ptr noundef %0) #4 {
  %2 = alloca ptr, align 8
  store ptr %0, ptr %2, align 8, !tbaa !3
  %3 = load ptr, ptr %2, align 8, !tbaa !3
  %4 = call i32 @_Py_IsImmortal(ptr noundef %3)
  %5 = icmp ne i32 %4, 0
  br i1 %5, label %6, label %7

6:                                                ; preds = %1
  br label %16

7:                                                ; preds = %1
  %8 = load ptr, ptr %2, align 8, !tbaa !3
  %9 = getelementptr inbounds nuw %struct._object, ptr %8, i32 0, i32 0
  %10 = getelementptr inbounds nuw %struct.anon, ptr %9, i32 0, i32 0
  %11 = load i32, ptr %10, align 8, !tbaa !63
  %12 = add i32 %11, -1
  store i32 %12, ptr %10, align 8, !tbaa !63
  %13 = icmp eq i32 %12, 0
  br i1 %13, label %14, label %16

14:                                               ; preds = %7
  %15 = load ptr, ptr %2, align 8, !tbaa !3
  call void @_Py_Dealloc(ptr noundef %15)
  br label %16

16:                                               ; preds = %6, %14, %7
  ret void
}

; Function Attrs: nounwind uwtable
define internal ptr @_pickle_UnpicklerMemoProxy_copy_impl(ptr noundef %0) #0 {
  %2 = alloca ptr, align 8
  %3 = alloca ptr, align 8
  %4 = alloca i64, align 8
  %5 = alloca ptr, align 8
  %6 = alloca i32, align 4
  %7 = alloca i32, align 4
  %8 = alloca ptr, align 8
  %9 = alloca ptr, align 8
  store ptr %0, ptr %3, align 8, !tbaa !8
  call void @llvm.lifetime.start.p0(i64 8, ptr %4) #10
  call void @llvm.lifetime.start.p0(i64 8, ptr %5) #10
  %10 = call ptr @PyDict_New()
  store ptr %10, ptr %5, align 8, !tbaa !3
  %11 = load ptr, ptr %5, align 8, !tbaa !3
  %12 = icmp eq ptr %11, null
  br i1 %12, label %13, label %14

13:                                               ; preds = %1
  store ptr null, ptr %2, align 8
  store i32 1, ptr %6, align 4
  br label %61

14:                                               ; preds = %1
  store i64 0, ptr %4, align 8, !tbaa !34
  br label %15

15:                                               ; preds = %54, %14
  %16 = load i64, ptr %4, align 8, !tbaa !34
  %17 = load ptr, ptr %3, align 8, !tbaa !8
  %18 = getelementptr inbounds nuw %struct.UnpicklerMemoProxyObject, ptr %17, i32 0, i32 1
  %19 = load ptr, ptr %18, align 8, !tbaa !219
  %20 = getelementptr inbounds nuw %struct.UnpicklerObject, ptr %19, i32 0, i32 3
  %21 = load i64, ptr %20, align 8, !tbaa !162
  %22 = icmp ult i64 %16, %21
  br i1 %22, label %23, label %57

23:                                               ; preds = %15
  call void @llvm.lifetime.start.p0(i64 4, ptr %7) #10
  call void @llvm.lifetime.start.p0(i64 8, ptr %8) #10
  call void @llvm.lifetime.start.p0(i64 8, ptr %9) #10
  %24 = load ptr, ptr %3, align 8, !tbaa !8
  %25 = getelementptr inbounds nuw %struct.UnpicklerMemoProxyObject, ptr %24, i32 0, i32 1
  %26 = load ptr, ptr %25, align 8, !tbaa !219
  %27 = getelementptr inbounds nuw %struct.UnpicklerObject, ptr %26, i32 0, i32 2
  %28 = load ptr, ptr %27, align 8, !tbaa !161
  %29 = load i64, ptr %4, align 8, !tbaa !34
  %30 = getelementptr ptr, ptr %28, i64 %29
  %31 = load ptr, ptr %30, align 8, !tbaa !3
  store ptr %31, ptr %9, align 8, !tbaa !3
  %32 = load ptr, ptr %9, align 8, !tbaa !3
  %33 = icmp eq ptr %32, null
  br i1 %33, label %34, label %35

34:                                               ; preds = %23
  store i32 4, ptr %6, align 4
  br label %51

35:                                               ; preds = %23
  %36 = load i64, ptr %4, align 8, !tbaa !34
  %37 = call ptr @PyLong_FromSsize_t(i64 noundef %36)
  store ptr %37, ptr %8, align 8, !tbaa !3
  %38 = load ptr, ptr %8, align 8, !tbaa !3
  %39 = icmp eq ptr %38, null
  br i1 %39, label %40, label %41

40:                                               ; preds = %35
  store i32 5, ptr %6, align 4
  br label %51

41:                                               ; preds = %35
  %42 = load ptr, ptr %5, align 8, !tbaa !3
  %43 = load ptr, ptr %8, align 8, !tbaa !3
  %44 = load ptr, ptr %9, align 8, !tbaa !3
  %45 = call i32 @PyDict_SetItem(ptr noundef %42, ptr noundef %43, ptr noundef %44)
  store i32 %45, ptr %7, align 4, !tbaa !12
  %46 = load ptr, ptr %8, align 8, !tbaa !3
  call void @Py_DECREF(ptr noundef %46)
  %47 = load i32, ptr %7, align 4, !tbaa !12
  %48 = icmp slt i32 %47, 0
  br i1 %48, label %49, label %50

49:                                               ; preds = %41
  store i32 5, ptr %6, align 4
  br label %51

50:                                               ; preds = %41
  store i32 0, ptr %6, align 4
  br label %51

51:                                               ; preds = %49, %40, %50, %34
  call void @llvm.lifetime.end.p0(i64 8, ptr %9) #10
  call void @llvm.lifetime.end.p0(i64 8, ptr %8) #10
  call void @llvm.lifetime.end.p0(i64 4, ptr %7) #10
  %52 = load i32, ptr %6, align 4
  switch i32 %52, label %61 [
    i32 0, label %53
    i32 4, label %54
    i32 5, label %59
  ]

53:                                               ; preds = %51
  br label %54

54:                                               ; preds = %53, %51
  %55 = load i64, ptr %4, align 8, !tbaa !34
  %56 = add i64 %55, 1
  store i64 %56, ptr %4, align 8, !tbaa !34
  br label %15, !llvm.loop !222

57:                                               ; preds = %15
  %58 = load ptr, ptr %5, align 8, !tbaa !3
  store ptr %58, ptr %2, align 8
  store i32 1, ptr %6, align 4
  br label %61

59:                                               ; preds = %51
  %60 = load ptr, ptr %5, align 8, !tbaa !3
  call void @Py_DECREF(ptr noundef %60)
  store ptr null, ptr %2, align 8
  store i32 1, ptr %6, align 4
  br label %61

61:                                               ; preds = %59, %57, %51, %13
  call void @llvm.lifetime.end.p0(i64 8, ptr %5) #10
  call void @llvm.lifetime.end.p0(i64 8, ptr %4) #10
  %62 = load ptr, ptr %2, align 8
  ret ptr %62
}