; Function Attrs: nounwind uwtable
define internal fastcc ptr @_pickle_UnpicklerMemoProxy_copy_impl(ptr noundef readonly captures(none) %0) unnamed_addr #0 {
  %2 = tail call ptr @PyDict_New() #13
  %3 = icmp eq ptr %2, null
  br i1 %3, label %Py_DECREF.exit, label %.preheader

.preheader:                                       ; preds = %1
  %4 = getelementptr inbounds nuw i8, ptr %0, i64 16
  %5 = load ptr, ptr %4, align 8, !tbaa !198
  %6 = getelementptr inbounds nuw i8, ptr %5, i64 32
  %7 = load i64, ptr %6, align 8, !tbaa !162
  %.not = icmp eq i64 %7, 0
  br i1 %.not, label %Py_DECREF.exit, label %.lr.ph

.lr.ph:                                           ; preds = %.preheader, %25
  %8 = phi ptr [ %26, %25 ], [ %5, %.preheader ]
  %.01726 = phi i64 [ %27, %25 ], [ 0, %.preheader ]
  %9 = getelementptr inbounds nuw i8, ptr %8, i64 24
  %10 = load ptr, ptr %9, align 8, !tbaa !161
  %11 = getelementptr ptr, ptr %10, i64 %.01726
  %12 = load ptr, ptr %11, align 8, !tbaa !35
  %13 = icmp eq ptr %12, null
  br i1 %13, label %25, label %14

14:                                               ; preds = %.lr.ph
  %15 = tail call ptr @PyLong_FromSsize_t(i64 noundef %.01726) #13
  %16 = icmp eq ptr %15, null
  br i1 %16, label %select.unfold, label %17

17:                                               ; preds = %14
  %18 = tail call i32 @PyDict_SetItem(ptr noundef nonnull %2, ptr noundef nonnull %15, ptr noundef nonnull %12) #13
  %19 = load i32, ptr %15, align 8, !tbaa !42
  %.not.i22 = icmp sgt i32 %19, -1
  br i1 %.not.i22, label %20, label %Py_DECREF.exit23

20:                                               ; preds = %17
  %21 = add nsw i32 %19, -1
  store i32 %21, ptr %15, align 8, !tbaa !42
  %22 = icmp eq i32 %21, 0
  br i1 %22, label %23, label %Py_DECREF.exit23

23:                                               ; preds = %20
  tail call void @_Py_Dealloc(ptr noundef nonnull %15) #13
  br label %Py_DECREF.exit23

Py_DECREF.exit23:                                 ; preds = %17, %20, %23
  %24 = icmp slt i32 %18, 0
  br i1 %24, label %select.unfold, label %Py_DECREF.exit23._crit_edge

Py_DECREF.exit23._crit_edge:                      ; preds = %Py_DECREF.exit23
  %.pre = load ptr, ptr %4, align 8, !tbaa !198
  br label %25

25:                                               ; preds = %Py_DECREF.exit23._crit_edge, %.lr.ph
  %26 = phi ptr [ %.pre, %Py_DECREF.exit23._crit_edge ], [ %8, %.lr.ph ]
  %27 = add nuw i64 %.01726, 1
  %28 = getelementptr inbounds nuw i8, ptr %26, i64 32
  %29 = load i64, ptr %28, align 8, !tbaa !162
  %30 = icmp ult i64 %27, %29
  br i1 %30, label %.lr.ph, label %Py_DECREF.exit, !llvm.loop !201

select.unfold:                                    ; preds = %Py_DECREF.exit23, %14
  %31 = load i32, ptr %2, align 8, !tbaa !42
  %.not.i = icmp sgt i32 %31, -1
  br i1 %.not.i, label %32, label %Py_DECREF.exit

32:                                               ; preds = %select.unfold
  %33 = add nsw i32 %31, -1
  store i32 %33, ptr %2, align 8, !tbaa !42
  %34 = icmp eq i32 %33, 0
  br i1 %34, label %35, label %Py_DECREF.exit

35:                                               ; preds = %32
  tail call void @_Py_Dealloc(ptr noundef nonnull %2) #13
  br label %Py_DECREF.exit

Py_DECREF.exit:                                   ; preds = %25, %.preheader, %35, %32, %select.unfold, %1
  %.0 = phi ptr [ null, %1 ], [ null, %select.unfold ], [ null, %32 ], [ null, %35 ], [ %2, %.preheader ], [ %2, %25 ]
  ret ptr %.0
}